; Function Attrs: nofree norecurse nosync nounwind memory(write, argmem: readwrite, inaccessiblemem: none) uwtable
define internal fastcc void @PrepareH42(ptr noalias noundef captures(none) %0, i32 noundef range(i32 0, 2) %1, i64 noundef range(i64 0, 4294967296) %2, ptr noalias noundef readonly captures(none) %3) unnamed_addr #12 {
  %5 = getelementptr inbounds nuw i8, ptr %0, i64 1032
  %6 = load ptr, ptr %5, align 8, !tbaa !63
  %7 = getelementptr inbounds nuw i8, ptr %6, i64 131072
  %.not = icmp ne i32 %1, 0
  %8 = icmp samesign ult i64 %2, 513
  %or.cond = select i1 %.not, i1 %8, i1 false
  br i1 %or.cond, label %.preheader, label %16

.preheader:                                       ; preds = %4
  %.not20 = icmp eq i64 %2, 0
  br i1 %.not20, label %.loopexit, label %.lr.ph

.lr.ph:                                           ; preds = %.preheader, %.lr.ph
  %.019 = phi i64 [ %15, %.lr.ph ], [ 0, %.preheader ]
  %9 = getelementptr inbounds nuw i8, ptr %3, i64 %.019
  %.0.copyload.i.i = load i32, ptr %9, align 1, !alias.scope !676
  %10 = mul i32 %.0.copyload.i.i, 506832829
  %11 = lshr i32 %10, 17
  %12 = zext nneg i32 %11 to i64
  %13 = getelementptr inbounds nuw i32, ptr %6, i64 %12
  store i32 -858993460, ptr %13, align 4, !tbaa !59
  %14 = getelementptr inbounds nuw i16, ptr %7, i64 %12
  store i16 -13108, ptr %14, align 2, !tbaa !80
  %15 = add nuw nsw i64 %.019, 1
  %exitcond.not = icmp eq i64 %15, %2
  br i1 %exitcond.not, label %.loopexit, label %.lr.ph, !llvm.loop !679

16:                                               ; preds = %4
  tail call void @llvm.memset.p0.i64(ptr noundef nonnull align 4 dereferenceable(131072) %6, i8 -52, i64 131072, i1 false)
  tail call void @llvm.memset.p0.i64(ptr noundef nonnull align 2 dereferenceable(65536) %7, i8 0, i64 65536, i1 false)
  br label %.loopexit

.loopexit:                                        ; preds = %.lr.ph, %.preheader, %16
  %17 = getelementptr inbounds nuw i8, ptr %6, i64 196608
  tail call void @llvm.memset.p0.i64(ptr noundef nonnull align 1 dereferenceable(65536) %17, i8 0, i64 65536, i1 false)
  tail call void @llvm.memset.p0.i64(ptr noundef nonnull align 8 dereferenceable(1024) %0, i8 0, i64 1024, i1 false)
  ret void
}